; ModuleID = '21/1162.c'
source_filename = "21/1162.c"
target datalayout = "e-m:e-p270:32:32-p271:32:32-p272:64:64-i64:64-f80:128-n8:16:32:64-S128"
target triple = "x86_64-pc-linux-gnu"

@.str = private unnamed_addr constant [3 x i8] c"%d\00", align 1
@.str.1 = private unnamed_addr constant [6 x i8] c"%d,%d\00", align 1

; Function Attrs: noinline nounwind uwtable
define dso_local i32 @main() #0 {
  %1 = alloca i32, align 4
  %2 = alloca [300 x i32], align 16
  %3 = alloca i32, align 4
  %4 = alloca i32, align 4
  %5 = alloca i32, align 4
  %6 = alloca i32, align 4
  %7 = alloca double, align 8
  %8 = alloca double, align 8
  %9 = alloca double, align 8
  %10 = alloca double, align 8
  store i32 0, i32* %1, align 4
  store double 0.000000e+00, double* %10, align 8
  %11 = call i32 (i8*, ...) @__isoc99_scanf(i8* getelementptr inbounds ([3 x i8], [3 x i8]* @.str, i64 0, i64 0), i32* %4)
  store i32 0, i32* %3, align 4
  br label %12

12:                                               ; preds = %28, %0
  %13 = load i32, i32* %3, align 4
  %14 = load i32, i32* %4, align 4
  %15 = icmp slt i32 %13, %14
  br i1 %15, label %16, label %31

16:                                               ; preds = %12
  %17 = load i32, i32* %3, align 4
  %18 = sext i32 %17 to i64
  %19 = getelementptr inbounds [300 x i32], [300 x i32]* %2, i64 0, i64 %18
  %20 = call i32 (i8*, ...) @__isoc99_scanf(i8* getelementptr inbounds ([3 x i8], [3 x i8]* @.str, i64 0, i64 0), i32* %19)
  %21 = load double, double* %10, align 8
  %22 = load i32, i32* %3, align 4
  %23 = sext i32 %22 to i64
  %24 = getelementptr inbounds [300 x i32], [300 x i32]* %2, i64 0, i64 %23
  %25 = load i32, i32* %24, align 4
  %26 = sitofp i32 %25 to double
  %27 = fadd double %21, %26
  store double %27, double* %10, align 8
  br label %28

28:                                               ; preds = %16
  %29 = load i32, i32* %3, align 4
  %30 = add nsw i32 %29, 1
  store i32 %30, i32* %3, align 4
  br label %12

31:                                               ; preds = %12
  %32 = load double, double* %10, align 8
  %33 = load i32, i32* %4, align 4
  %34 = sitofp i32 %33 to double
  %35 = fdiv double %32, %34
  store double %35, double* %7, align 8
  %36 = getelementptr inbounds [300 x i32], [300 x i32]* %2, i64 0, i64 0
  %37 = load i32, i32* %36, align 16
  store i32 %37, i32* %5, align 4
  %38 = getelementptr inbounds [300 x i32], [300 x i32]* %2, i64 0, i64 0
  %39 = load i32, i32* %38, align 16
  store i32 %39, i32* %6, align 4
  store i32 0, i32* %3, align 4
  br label %40

40:                                               ; preds = %69, %31
  %41 = load i32, i32* %3, align 4
  %42 = load i32, i32* %4, align 4
  %43 = icmp slt i32 %41, %42
  br i1 %43, label %44, label %72

44:                                               ; preds = %40
  %45 = load i32, i32* %3, align 4
  %46 = sext i32 %45 to i64
  %47 = getelementptr inbounds [300 x i32], [300 x i32]* %2, i64 0, i64 %46
  %48 = load i32, i32* %47, align 4
  %49 = load i32, i32* %5, align 4
  %50 = icmp sgt i32 %48, %49
  br i1 %50, label %51, label %56

51:                                               ; preds = %44
  %52 = load i32, i32* %3, align 4
  %53 = sext i32 %52 to i64
  %54 = getelementptr inbounds [300 x i32], [300 x i32]* %2, i64 0, i64 %53
  %55 = load i32, i32* %54, align 4
  store i32 %55, i32* %5, align 4
  br label %56

56:                                               ; preds = %51, %44
  %57 = load i32, i32* %3, align 4
  %58 = sext i32 %57 to i64
  %59 = getelementptr inbounds [300 x i32], [300 x i32]* %2, i64 0, i64 %58
  %60 = load i32, i32* %59, align 4
  %61 = load i32, i32* %6, align 4
  %62 = icmp slt i32 %60, %61
  br i1 %62, label %63, label %68

63:                                               ; preds = %56
  %64 = load i32, i32* %3, align 4
  %65 = sext i32 %64 to i64
  %66 = getelementptr inbounds [300 x i32], [300 x i32]* %2, i64 0, i64 %65
  %67 = load i32, i32* %66, align 4
  store i32 %67, i32* %6, align 4
  br label %68

68:                                               ; preds = %63, %56
  br label %69

69:                                               ; preds = %68
  %70 = load i32, i32* %3, align 4
  %71 = add nsw i32 %70, 1
  store i32 %71, i32* %3, align 4
  br label %40

72:                                               ; preds = %40
  %73 = load i32, i32* %5, align 4
  %74 = sitofp i32 %73 to double
  %75 = load double, double* %7, align 8
  %76 = fsub double %74, %75
  %77 = call double @llvm.fabs.f64(double %76)
  store double %77, double* %8, align 8
  %78 = load i32, i32* %6, align 4
  %79 = sitofp i32 %78 to double
  %80 = load double, double* %7, align 8
  %81 = fsub double %79, %80
  %82 = call double @llvm.fabs.f64(double %81)
  store double %82, double* %9, align 8
  %83 = load double, double* %8, align 8
  %84 = load double, double* %9, align 8
  %85 = fcmp oeq double %83, %84
  br i1 %85, label %86, label %90

86:                                               ; preds = %72
  %87 = load i32, i32* %6, align 4
  %88 = load i32, i32* %5, align 4
  %89 = call i32 (i8*, ...) @printf(i8* getelementptr inbounds ([6 x i8], [6 x i8]* @.str.1, i64 0, i64 0), i32 %87, i32 %88)
  br label %101

90:                                               ; preds = %72
  %91 = load double, double* %8, align 8
  %92 = load double, double* %9, align 8
  %93 = fcmp ogt double %91, %92
  br i1 %93, label %94, label %97

94:                                               ; preds = %90
  %95 = load i32, i32* %5, align 4
  %96 = call i32 (i8*, ...) @printf(i8* getelementptr inbounds ([3 x i8], [3 x i8]* @.str, i64 0, i64 0), i32 %95)
  br label %100

97:                                               ; preds = %90
  %98 = load i32, i32* %6, align 4
  %99 = call i32 (i8*, ...) @printf(i8* getelementptr inbounds ([3 x i8], [3 x i8]* @.str, i64 0, i64 0), i32 %98)
  br label %100

100:                                              ; preds = %97, %94
  br label %101

101:                                              ; preds = %100, %86
  ret i32 0
}

declare dso_local i32 @__isoc99_scanf(i8*, ...) #1

; Function Attrs: nounwind readnone speculatable willreturn
declare double @llvm.fabs.f64(double) #2

declare dso_local i32 @printf(i8*, ...) #1


!llvm.module.flags = !{!0}
!llvm.ident = !{!1}

!0 = !{i32 1, !"wchar_size", i32 4}
!1 = !{!"clang version 10.0.0-4ubuntu1 "}
